; ModuleID = '58/1063.c'
source_filename = "58/1063.c"
target datalayout = "e-m:e-p270:32:32-p271:32:32-p272:64:64-i64:64-f80:128-n8:16:32:64-S128"
target triple = "x86_64-pc-linux-gnu"

@.str = private unnamed_addr constant [3 x i8] c"%d\00", align 1
@.str.1 = private unnamed_addr constant [3 x i8] c"1\0A\00", align 1
@.str.2 = private unnamed_addr constant [3 x i8] c"0\0A\00", align 1

; Function Attrs: noinline nounwind uwtable
define dso_local i32 @main() #0 {
  %1 = alloca i32, align 4
  %2 = alloca i32, align 4
  %3 = alloca i32, align 4
  %4 = alloca i32, align 4
  %5 = alloca i32, align 4
  %6 = alloca [1000 x i8], align 16
  %7 = alloca i32, align 4
  store i32 0, i32* %1, align 4
  store i32 1, i32* %4, align 4
  %8 = call i32 (i8*, ...) @__isoc99_scanf(i8* getelementptr inbounds ([3 x i8], [3 x i8]* @.str, i64 0, i64 0), i32* %2)
  br label %9

9:                                                ; preds = %196, %0
  %10 = load i32, i32* %4, align 4
  %11 = load i32, i32* %2, align 4
  %12 = add nsw i32 %11, 1
  %13 = icmp sle i32 %10, %12
  br i1 %13, label %14, label %199

14:                                               ; preds = %9
  %15 = getelementptr inbounds [1000 x i8], [1000 x i8]* %6, i64 0, i64 0
  %16 = call i32 (i8*, ...) bitcast (i32 (...)* @gets to i32 (i8*, ...)*)(i8* %15)
  %17 = getelementptr inbounds [1000 x i8], [1000 x i8]* %6, i64 0, i64 0
  %18 = call i64 @strlen(i8* %17) #3
  %19 = trunc i64 %18 to i32
  store i32 %19, i32* %7, align 4
  %20 = load i32, i32* %7, align 4
  %21 = icmp sgt i32 %20, 1
  br i1 %21, label %22, label %169

22:                                               ; preds = %14
  %23 = getelementptr inbounds [1000 x i8], [1000 x i8]* %6, i64 0, i64 0
  %24 = load i8, i8* %23, align 16
  %25 = sext i8 %24 to i32
  %26 = icmp sle i32 %25, 122
  br i1 %26, label %27, label %96

27:                                               ; preds = %22
  %28 = getelementptr inbounds [1000 x i8], [1000 x i8]* %6, i64 0, i64 0
  %29 = load i8, i8* %28, align 16
  %30 = sext i8 %29 to i32
  %31 = icmp sge i32 %30, 65
  br i1 %31, label %32, label %96

32:                                               ; preds = %27
  %33 = load i32, i32* %7, align 4
  %34 = sub nsw i32 %33, 1
  store i32 %34, i32* %5, align 4
  store i32 1, i32* %3, align 4
  br label %35

35:                                               ; preds = %85, %32
  %36 = load i32, i32* %3, align 4
  %37 = load i32, i32* %7, align 4
  %38 = icmp slt i32 %36, %37
  br i1 %38, label %39, label %88

39:                                               ; preds = %35
  %40 = load i32, i32* %3, align 4
  %41 = sext i32 %40 to i64
  %42 = getelementptr inbounds [1000 x i8], [1000 x i8]* %6, i64 0, i64 %41
  %43 = load i8, i8* %42, align 1
  %44 = sext i8 %43 to i32
  %45 = icmp sge i32 %44, 65
  br i1 %45, label %46, label %56

46:                                               ; preds = %39
  %47 = load i32, i32* %3, align 4
  %48 = sext i32 %47 to i64
  %49 = getelementptr inbounds [1000 x i8], [1000 x i8]* %6, i64 0, i64 %48
  %50 = load i8, i8* %49, align 1
  %51 = sext i8 %50 to i32
  %52 = icmp sle i32 %51, 122
  br i1 %52, label %53, label %56

53:                                               ; preds = %46
  %54 = load i32, i32* %5, align 4
  %55 = add nsw i32 %54, -1
  store i32 %55, i32* %5, align 4
  br label %85

56:                                               ; preds = %46, %39
  %57 = load i32, i32* %3, align 4
  %58 = sext i32 %57 to i64
  %59 = getelementptr inbounds [1000 x i8], [1000 x i8]* %6, i64 0, i64 %58
  %60 = load i8, i8* %59, align 1
  %61 = sext i8 %60 to i32
  %62 = icmp sge i32 %61, 48
  br i1 %62, label %63, label %73

63:                                               ; preds = %56
  %64 = load i32, i32* %3, align 4
  %65 = sext i32 %64 to i64
  %66 = getelementptr inbounds [1000 x i8], [1000 x i8]* %6, i64 0, i64 %65
  %67 = load i8, i8* %66, align 1
  %68 = sext i8 %67 to i32
  %69 = icmp sle i32 %68, 57
  br i1 %69, label %70, label %73

70:                                               ; preds = %63
  %71 = load i32, i32* %5, align 4
  %72 = add nsw i32 %71, -1
  store i32 %72, i32* %5, align 4
  br label %84

73:                                               ; preds = %63, %56
  %74 = load i32, i32* %3, align 4
  %75 = sext i32 %74 to i64
  %76 = getelementptr inbounds [1000 x i8], [1000 x i8]* %6, i64 0, i64 %75
  %77 = load i8, i8* %76, align 1
  %78 = sext i8 %77 to i32
  %79 = icmp eq i32 %78, 95
  br i1 %79, label %80, label %83

80:                                               ; preds = %73
  %81 = load i32, i32* %5, align 4
  %82 = add nsw i32 %81, -1
  store i32 %82, i32* %5, align 4
  br label %83

83:                                               ; preds = %80, %73
  br label %84

84:                                               ; preds = %83, %70
  br label %85

85:                                               ; preds = %84, %53
  %86 = load i32, i32* %3, align 4
  %87 = add nsw i32 %86, 1
  store i32 %87, i32* %3, align 4
  br label %35

88:                                               ; preds = %35
  %89 = load i32, i32* %5, align 4
  %90 = icmp eq i32 %89, 0
  br i1 %90, label %91, label %93

91:                                               ; preds = %88
  %92 = call i32 (i8*, ...) @printf(i8* getelementptr inbounds ([3 x i8], [3 x i8]* @.str.1, i64 0, i64 0))
  br label %95

93:                                               ; preds = %88
  %94 = call i32 (i8*, ...) @printf(i8* getelementptr inbounds ([3 x i8], [3 x i8]* @.str.2, i64 0, i64 0))
  br label %95

95:                                               ; preds = %93, %91
  br label %168

96:                                               ; preds = %27, %22
  %97 = getelementptr inbounds [1000 x i8], [1000 x i8]* %6, i64 0, i64 0
  %98 = load i8, i8* %97, align 16
  %99 = sext i8 %98 to i32
  %100 = icmp eq i32 %99, 95
  br i1 %100, label %101, label %165

101:                                              ; preds = %96
  store i32 1, i32* %3, align 4
  %102 = load i32, i32* %7, align 4
  %103 = sub nsw i32 %102, 1
  store i32 %103, i32* %5, align 4
  br label %104

104:                                              ; preds = %154, %101
  %105 = load i32, i32* %3, align 4
  %106 = load i32, i32* %7, align 4
  %107 = icmp slt i32 %105, %106
  br i1 %107, label %108, label %157

108:                                              ; preds = %104
  %109 = load i32, i32* %3, align 4
  %110 = sext i32 %109 to i64
  %111 = getelementptr inbounds [1000 x i8], [1000 x i8]* %6, i64 0, i64 %110
  %112 = load i8, i8* %111, align 1
  %113 = sext i8 %112 to i32
  %114 = icmp sge i32 %113, 65
  br i1 %114, label %115, label %125

115:                                              ; preds = %108
  %116 = load i32, i32* %3, align 4
  %117 = sext i32 %116 to i64
  %118 = getelementptr inbounds [1000 x i8], [1000 x i8]* %6, i64 0, i64 %117
  %119 = load i8, i8* %118, align 1
  %120 = sext i8 %119 to i32
  %121 = icmp sle i32 %120, 122
  br i1 %121, label %122, label %125

122:                                              ; preds = %115
  %123 = load i32, i32* %5, align 4
  %124 = add nsw i32 %123, -1
  store i32 %124, i32* %5, align 4
  br label %154

125:                                              ; preds = %115, %108
  %126 = load i32, i32* %3, align 4
  %127 = sext i32 %126 to i64
  %128 = getelementptr inbounds [1000 x i8], [1000 x i8]* %6, i64 0, i64 %127
  %129 = load i8, i8* %128, align 1
  %130 = sext i8 %129 to i32
  %131 = icmp sge i32 %130, 48
  br i1 %131, label %132, label %142

132:                                              ; preds = %125
  %133 = load i32, i32* %3, align 4
  %134 = sext i32 %133 to i64
  %135 = getelementptr inbounds [1000 x i8], [1000 x i8]* %6, i64 0, i64 %134
  %136 = load i8, i8* %135, align 1
  %137 = sext i8 %136 to i32
  %138 = icmp sle i32 %137, 57
  br i1 %138, label %139, label %142

139:                                              ; preds = %132
  %140 = load i32, i32* %5, align 4
  %141 = add nsw i32 %140, -1
  store i32 %141, i32* %5, align 4
  br label %153

142:                                              ; preds = %132, %125
  %143 = load i32, i32* %3, align 4
  %144 = sext i32 %143 to i64
  %145 = getelementptr inbounds [1000 x i8], [1000 x i8]* %6, i64 0, i64 %144
  %146 = load i8, i8* %145, align 1
  %147 = sext i8 %146 to i32
  %148 = icmp eq i32 %147, 95
  br i1 %148, label %149, label %152

149:                                              ; preds = %142
  %150 = load i32, i32* %5, align 4
  %151 = add nsw i32 %150, -1
  store i32 %151, i32* %5, align 4
  br label %152

152:                                              ; preds = %149, %142
  br label %153

153:                                              ; preds = %152, %139
  br label %154

154:                                              ; preds = %153, %122
  %155 = load i32, i32* %3, align 4
  %156 = add nsw i32 %155, 1
  store i32 %156, i32* %3, align 4
  br label %104

157:                                              ; preds = %104
  %158 = load i32, i32* %5, align 4
  %159 = icmp eq i32 %158, 0
  br i1 %159, label %160, label %162

160:                                              ; preds = %157
  %161 = call i32 (i8*, ...) @printf(i8* getelementptr inbounds ([3 x i8], [3 x i8]* @.str.1, i64 0, i64 0))
  br label %164

162:                                              ; preds = %157
  %163 = call i32 (i8*, ...) @printf(i8* getelementptr inbounds ([3 x i8], [3 x i8]* @.str.2, i64 0, i64 0))
  br label %164

164:                                              ; preds = %162, %160
  br label %167

165:                                              ; preds = %96
  %166 = call i32 (i8*, ...) @printf(i8* getelementptr inbounds ([3 x i8], [3 x i8]* @.str.2, i64 0, i64 0))
  br label %167

167:                                              ; preds = %165, %164
  br label %168

168:                                              ; preds = %167, %95
  br label %196

169:                                              ; preds = %14
  %170 = load i32, i32* %7, align 4
  %171 = icmp eq i32 %170, 1
  br i1 %171, label %172, label %195

172:                                              ; preds = %169
  %173 = getelementptr inbounds [1000 x i8], [1000 x i8]* %6, i64 0, i64 0
  %174 = load i8, i8* %173, align 16
  %175 = sext i8 %174 to i32
  %176 = icmp sge i32 %175, 65
  br i1 %176, label %177, label %184

177:                                              ; preds = %172
  %178 = getelementptr inbounds [1000 x i8], [1000 x i8]* %6, i64 0, i64 0
  %179 = load i8, i8* %178, align 16
  %180 = sext i8 %179 to i32
  %181 = icmp sle i32 %180, 122
  br i1 %181, label %182, label %184

182:                                              ; preds = %177
  %183 = call i32 (i8*, ...) @printf(i8* getelementptr inbounds ([3 x i8], [3 x i8]* @.str.1, i64 0, i64 0))
  br label %194

184:                                              ; preds = %177, %172
  %185 = getelementptr inbounds [1000 x i8], [1000 x i8]* %6, i64 0, i64 0
  %186 = load i8, i8* %185, align 16
  %187 = sext i8 %186 to i32
  %188 = icmp eq i32 %187, 95
  br i1 %188, label %189, label %191

189:                                              ; preds = %184
  %190 = call i32 (i8*, ...) @printf(i8* getelementptr inbounds ([3 x i8], [3 x i8]* @.str.1, i64 0, i64 0))
  br label %193

191:                                              ; preds = %184
  %192 = call i32 (i8*, ...) @printf(i8* getelementptr inbounds ([3 x i8], [3 x i8]* @.str.2, i64 0, i64 0))
  br label %193

193:                                              ; preds = %191, %189
  br label %194

194:                                              ; preds = %193, %182
  br label %195

195:                                              ; preds = %194, %169
  br label %196

196:                                              ; preds = %195, %168
  %197 = load i32, i32* %4, align 4
  %198 = add nsw i32 %197, 1
  store i32 %198, i32* %4, align 4
  br label %9

199:                                              ; preds = %9
  %200 = call i32 @getchar()
  %201 = call i32 @getchar()
  %202 = call i32 @getchar()
  %203 = call i32 @getchar()
  %204 = call i32 @getchar()
  %205 = call i32 @getchar()
  %206 = call i32 @getchar()
  %207 = call i32 @getchar()
  %208 = call i32 @getchar()
  %209 = call i32 @getchar()
  %210 = call i32 @getchar()
  %211 = call i32 @getchar()
  %212 = call i32 @getchar()
  %213 = call i32 @getchar()
  %214 = load i32, i32* %1, align 4
  ret i32 %214
}

declare dso_local i32 @__isoc99_scanf(i8*, ...) #1

declare dso_local i32 @gets(...) #1

; Function Attrs: nounwind readonly
declare dso_local i64 @strlen(i8*) #2

declare dso_local i32 @printf(i8*, ...) #1

declare dso_local i32 @getchar() #1


!llvm.module.flags = !{!0}
!llvm.ident = !{!1}

!0 = !{i32 1, !"wchar_size", i32 4}
!1 = !{!"clang version 10.0.0-4ubuntu1 "}
